target datalayout = "e-m:e-p270:32:32-p271:32:32-p272:64:64-i64:64-i128:128-f80:128-n8:16:32:64-S128"
target triple = "x86_64-pc-linux-gnu"

%struct.ARKodeMemRec = type { ptr, double, ptr, i32, i32, double, double, ptr, i32, double, ptr, i32, i32, ptr, ptr, i32, ptr, ptr, i32, ptr, ptr, ptr, ptr, ptr, ptr, ptr, ptr, ptr, ptr, ptr, ptr, ptr, ptr, ptr, i32, ptr, ptr, i32, ptr, i32, ptr, ptr, ptr, ptr, ptr, ptr, ptr, ptr, ptr, ptr, ptr, ptr, ptr, ptr, ptr, ptr, ptr, ptr, ptr, ptr, ptr, ptr, ptr, ptr, ptr, ptr, i32, ptr, ptr, ptr, ptr, ptr, ptr, ptr, i32, ptr, ptr, ptr, i32, ptr, ptr, ptr, ptr, ptr, ptr, ptr, i32, i32, i32, i32, double, double, double, double, double, double, double, double, double, double, i32, ptr, i64, i32, i32, i32, i32, i64, i64, i32, i64, i64, i64, i64, i64, i64, i64, double, double, double, double, double, i32, double, double, i32, i32, i32, i32, i32, i32, i32, i32, ptr, i32, ptr, ptr, ptr, ptr, i32, i32, i32 }
%struct.ARKodeMRIStepMemRec = type { ptr, ptr, i32, i32, i32, i32, i32, ptr, ptr, i32, i32, i32, ptr, i32, i32, i32, i32, i32, ptr, ptr, ptr, ptr, ptr, ptr, ptr, i32, ptr, i32, ptr, double, double, double, double, i32, double, double, double, double, double, double, i32, i64, i32, i32, i32, ptr, ptr, ptr, ptr, ptr, ptr, ptr, ptr, ptr, double, double, double, i64, i64, i64, i64, i64, i64, i32, i32, i32, double, double, ptr, i32, ptr, ptr }
%struct.MRIStepCouplingMem = type { i32, i32, i32, i32, i32, ptr, ptr, ptr, i32, ptr }

@.str = private unnamed_addr constant [123 x i8] c"generated/home/dtcxzyw/WorkSpace/Projects/compilers/llvm-opt-benchmark/bench/sundials/sundials/src/arkode/arkode_mristep.c\00", align 1
@.str.75 = private unnamed_addr constant [33 x i8] c"Time step module memory is NULL.\00", align 1
@__func__.mriStep_SetInnerForcing = private unnamed_addr constant [24 x i8] c"mriStep_SetInnerForcing\00", align 1

; Function Attrs: nounwind uwtable
define i32 @mriStep_AccessStepMem(ptr noundef %0, ptr noundef %1, ptr noundef %2) #0 {
  %4 = alloca i32, align 4
  %5 = alloca ptr, align 8
  %6 = alloca ptr, align 8
  %7 = alloca ptr, align 8
  store ptr %0, ptr %5, align 8, !tbaa !17
  store ptr %1, ptr %6, align 8, !tbaa !221
  store ptr %2, ptr %7, align 8, !tbaa !225
  %8 = load ptr, ptr %5, align 8, !tbaa !17
  %9 = getelementptr inbounds nuw %struct.ARKodeMemRec, ptr %8, i32 0, i32 19
  %10 = load ptr, ptr %9, align 8, !tbaa !70
  %11 = icmp eq ptr %10, null
  br i1 %11, label %12, label %15

12:                                               ; preds = %3
  %13 = load ptr, ptr %5, align 8, !tbaa !17
  %14 = load ptr, ptr %6, align 8, !tbaa !221
  call void (ptr, i32, i32, ptr, ptr, ptr, ...) @arkProcessError(ptr noundef %13, i32 noundef -21, i32 noundef 3097, ptr noundef %14, ptr noundef @.str, ptr noundef @.str.75)
  store i32 -21, ptr %4, align 4
  br label %20

15:                                               ; preds = %3
  %16 = load ptr, ptr %5, align 8, !tbaa !17
  %17 = getelementptr inbounds nuw %struct.ARKodeMemRec, ptr %16, i32 0, i32 19
  %18 = load ptr, ptr %17, align 8, !tbaa !70
  %19 = load ptr, ptr %7, align 8, !tbaa !225
  store ptr %18, ptr %19, align 8, !tbaa !19
  store i32 0, ptr %4, align 4
  br label %20

20:                                               ; preds = %15, %12
  %21 = load i32, ptr %4, align 4
  ret i32 %21
}

; Function Attrs: nounwind uwtable
define i32 @mriStep_SetInnerForcing(ptr noundef %0, double noundef %1, double noundef %2, ptr noundef %3, i32 noundef %4) #0 {
  %6 = alloca i32, align 4
  %7 = alloca ptr, align 8
  %8 = alloca double, align 8
  %9 = alloca double, align 8
  %10 = alloca ptr, align 8
  %11 = alloca i32, align 4
  %12 = alloca ptr, align 8
  %13 = alloca i32, align 4
  %14 = alloca i32, align 4
  store ptr %0, ptr %7, align 8, !tbaa !17
  store double %1, ptr %8, align 8, !tbaa !7
  store double %2, ptr %9, align 8, !tbaa !7
  store ptr %3, ptr %10, align 8, !tbaa !216
  store i32 %4, ptr %11, align 4, !tbaa !15
  call void @llvm.lifetime.start.p0(i64 8, ptr %12) #8
  call void @llvm.lifetime.start.p0(i64 4, ptr %13) #8
  %15 = load ptr, ptr %7, align 8, !tbaa !17
  %16 = call i32 @mriStep_AccessStepMem(ptr noundef %15, ptr noundef @__func__.mriStep_SetInnerForcing, ptr noundef %12)
  store i32 %16, ptr %13, align 4, !tbaa !15
  %17 = load i32, ptr %13, align 4, !tbaa !15
  %18 = icmp ne i32 %17, 0
  br i1 %18, label %19, label %21

19:                                               ; preds = %5
  %20 = load i32, ptr %13, align 4, !tbaa !15
  store i32 %20, ptr %6, align 4
  store i32 1, ptr %14, align 4
  br label %189

21:                                               ; preds = %5
  %22 = load i32, ptr %11, align 4, !tbaa !15
  %23 = icmp sgt i32 %22, 0
  br i1 %23, label %24, label %175

24:                                               ; preds = %21
  %25 = load ptr, ptr %12, align 8, !tbaa !19
  %26 = getelementptr inbounds nuw %struct.ARKodeMRIStepMemRec, ptr %25, i32 0, i32 4
  %27 = load i32, ptr %26, align 8, !tbaa !81
  %28 = icmp ne i32 %27, 0
  br i1 %28, label %29, label %36

29:                                               ; preds = %24
  %30 = load ptr, ptr %12, align 8, !tbaa !19
  %31 = getelementptr inbounds nuw %struct.ARKodeMRIStepMemRec, ptr %30, i32 0, i32 64
  store i32 1, ptr %31, align 4, !tbaa !110
  %32 = load ptr, ptr %12, align 8, !tbaa !19
  %33 = getelementptr inbounds nuw %struct.ARKodeMRIStepMemRec, ptr %32, i32 0, i32 65
  store i32 0, ptr %33, align 8, !tbaa !111
  %34 = load ptr, ptr %12, align 8, !tbaa !19
  %35 = getelementptr inbounds nuw %struct.ARKodeMRIStepMemRec, ptr %34, i32 0, i32 10
  store i32 0, ptr %35, align 4, !tbaa !79
  br label %43

36:                                               ; preds = %24
  %37 = load ptr, ptr %12, align 8, !tbaa !19
  %38 = getelementptr inbounds nuw %struct.ARKodeMRIStepMemRec, ptr %37, i32 0, i32 64
  store i32 0, ptr %38, align 4, !tbaa !110
  %39 = load ptr, ptr %12, align 8, !tbaa !19
  %40 = getelementptr inbounds nuw %struct.ARKodeMRIStepMemRec, ptr %39, i32 0, i32 65
  store i32 1, ptr %40, align 8, !tbaa !111
  %41 = load ptr, ptr %12, align 8, !tbaa !19
  %42 = getelementptr inbounds nuw %struct.ARKodeMRIStepMemRec, ptr %41, i32 0, i32 11
  store i32 0, ptr %42, align 8, !tbaa !80
  br label %43

43:                                               ; preds = %36, %29
  %44 = load double, ptr %8, align 8, !tbaa !7
  %45 = load ptr, ptr %12, align 8, !tbaa !19
  %46 = getelementptr inbounds nuw %struct.ARKodeMRIStepMemRec, ptr %45, i32 0, i32 66
  store double %44, ptr %46, align 8, !tbaa !217
  %47 = load double, ptr %9, align 8, !tbaa !7
  %48 = load ptr, ptr %12, align 8, !tbaa !19
  %49 = getelementptr inbounds nuw %struct.ARKodeMRIStepMemRec, ptr %48, i32 0, i32 67
  store double %47, ptr %49, align 8, !tbaa !218
  %50 = load ptr, ptr %10, align 8, !tbaa !216
  %51 = load ptr, ptr %12, align 8, !tbaa !19
  %52 = getelementptr inbounds nuw %struct.ARKodeMRIStepMemRec, ptr %51, i32 0, i32 68
  store ptr %50, ptr %52, align 8, !tbaa !112
  %53 = load i32, ptr %11, align 4, !tbaa !15
  %54 = load ptr, ptr %12, align 8, !tbaa !19
  %55 = getelementptr inbounds nuw %struct.ARKodeMRIStepMemRec, ptr %54, i32 0, i32 69
  store i32 %53, ptr %55, align 8, !tbaa !113
  %56 = load ptr, ptr %7, align 8, !tbaa !17
  %57 = getelementptr inbounds nuw %struct.ARKodeMemRec, ptr %56, i32 0, i32 78
  store i32 0, ptr %57, align 8, !tbaa !190
  %58 = load ptr, ptr %12, align 8, !tbaa !19
  %59 = getelementptr inbounds nuw %struct.ARKodeMRIStepMemRec, ptr %58, i32 0, i32 70
  %60 = load ptr, ptr %59, align 8, !tbaa !103
  %61 = icmp ne ptr %60, null
  br i1 %61, label %62, label %174

62:                                               ; preds = %43
  %63 = load ptr, ptr %12, align 8, !tbaa !19
  %64 = getelementptr inbounds nuw %struct.ARKodeMRIStepMemRec, ptr %63, i32 0, i32 71
  %65 = load ptr, ptr %64, align 8, !tbaa !104
  %66 = icmp ne ptr %65, null
  br i1 %66, label %67, label %174

67:                                               ; preds = %62
  %68 = load ptr, ptr %12, align 8, !tbaa !19
  %69 = getelementptr inbounds nuw %struct.ARKodeMRIStepMemRec, ptr %68, i32 0, i32 63
  %70 = load i32, ptr %69, align 8, !tbaa !102
  %71 = load i32, ptr %11, align 4, !tbaa !15
  %72 = sub nsw i32 %70, %71
  %73 = load ptr, ptr %12, align 8, !tbaa !19
  %74 = getelementptr inbounds nuw %struct.ARKodeMRIStepMemRec, ptr %73, i32 0, i32 12
  %75 = load ptr, ptr %74, align 8, !tbaa !137
  %76 = getelementptr inbounds nuw %struct.MRIStepCouplingMem, ptr %75, i32 0, i32 2
  %77 = load i32, ptr %76, align 8, !tbaa !141
  %78 = mul nsw i32 2, %77
  %79 = add nsw i32 %78, 2
  %80 = icmp slt i32 %72, %79
  br i1 %80, label %81, label %173

81:                                               ; preds = %67
  %82 = load ptr, ptr %12, align 8, !tbaa !19
  %83 = getelementptr inbounds nuw %struct.ARKodeMRIStepMemRec, ptr %82, i32 0, i32 70
  %84 = load ptr, ptr %83, align 8, !tbaa !103
  %85 = icmp ne ptr %84, null
  br i1 %85, label %86, label %98

86:                                               ; preds = %81
  %87 = load ptr, ptr %12, align 8, !tbaa !19
  %88 = getelementptr inbounds nuw %struct.ARKodeMRIStepMemRec, ptr %87, i32 0, i32 70
  %89 = load ptr, ptr %88, align 8, !tbaa !103
  call void @free(ptr noundef %89) #8
  %90 = load ptr, ptr %12, align 8, !tbaa !19
  %91 = getelementptr inbounds nuw %struct.ARKodeMRIStepMemRec, ptr %90, i32 0, i32 63
  %92 = load i32, ptr %91, align 8, !tbaa !102
  %93 = sext i32 %92 to i64
  %94 = load ptr, ptr %7, align 8, !tbaa !17
  %95 = getelementptr inbounds nuw %struct.ARKodeMemRec, ptr %94, i32 0, i32 115
  %96 = load i64, ptr %95, align 8, !tbaa !84
  %97 = sub nsw i64 %96, %93
  store i64 %97, ptr %95, align 8, !tbaa !84
  br label %98

98:                                               ; preds = %86, %81
  %99 = load ptr, ptr %12, align 8, !tbaa !19
  %100 = getelementptr inbounds nuw %struct.ARKodeMRIStepMemRec, ptr %99, i32 0, i32 71
  %101 = load ptr, ptr %100, align 8, !tbaa !104
  %102 = icmp ne ptr %101, null
  br i1 %102, label %103, label %115

103:                                              ; preds = %98
  %104 = load ptr, ptr %12, align 8, !tbaa !19
  %105 = getelementptr inbounds nuw %struct.ARKodeMRIStepMemRec, ptr %104, i32 0, i32 71
  %106 = load ptr, ptr %105, align 8, !tbaa !104
  call void @free(ptr noundef %106) #8
  %107 = load ptr, ptr %12, align 8, !tbaa !19
  %108 = getelementptr inbounds nuw %struct.ARKodeMRIStepMemRec, ptr %107, i32 0, i32 63
  %109 = load i32, ptr %108, align 8, !tbaa !102
  %110 = sext i32 %109 to i64
  %111 = load ptr, ptr %7, align 8, !tbaa !17
  %112 = getelementptr inbounds nuw %struct.ARKodeMemRec, ptr %111, i32 0, i32 116
  %113 = load i64, ptr %112, align 8, !tbaa !83
  %114 = sub nsw i64 %113, %110
  store i64 %114, ptr %112, align 8, !tbaa !83
  br label %115

115:                                              ; preds = %103, %98
  %116 = load ptr, ptr %12, align 8, !tbaa !19
  %117 = getelementptr inbounds nuw %struct.ARKodeMRIStepMemRec, ptr %116, i32 0, i32 12
  %118 = load ptr, ptr %117, align 8, !tbaa !137
  %119 = getelementptr inbounds nuw %struct.MRIStepCouplingMem, ptr %118, i32 0, i32 2
  %120 = load i32, ptr %119, align 8, !tbaa !141
  %121 = mul nsw i32 2, %120
  %122 = add nsw i32 %121, 2
  %123 = load i32, ptr %11, align 4, !tbaa !15
  %124 = add nsw i32 %122, %123
  %125 = load ptr, ptr %12, align 8, !tbaa !19
  %126 = getelementptr inbounds nuw %struct.ARKodeMRIStepMemRec, ptr %125, i32 0, i32 63
  store i32 %124, ptr %126, align 8, !tbaa !102
  %127 = load ptr, ptr %12, align 8, !tbaa !19
  %128 = getelementptr inbounds nuw %struct.ARKodeMRIStepMemRec, ptr %127, i32 0, i32 70
  store ptr null, ptr %128, align 8, !tbaa !103
  %129 = load ptr, ptr %12, align 8, !tbaa !19
  %130 = getelementptr inbounds nuw %struct.ARKodeMRIStepMemRec, ptr %129, i32 0, i32 63
  %131 = load i32, ptr %130, align 8, !tbaa !102
  %132 = sext i32 %131 to i64
  %133 = call noalias ptr @calloc(i64 noundef %132, i64 noundef 8) #9
  %134 = load ptr, ptr %12, align 8, !tbaa !19
  %135 = getelementptr inbounds nuw %struct.ARKodeMRIStepMemRec, ptr %134, i32 0, i32 70
  store ptr %133, ptr %135, align 8, !tbaa !103
  %136 = load ptr, ptr %12, align 8, !tbaa !19
  %137 = getelementptr inbounds nuw %struct.ARKodeMRIStepMemRec, ptr %136, i32 0, i32 70
  %138 = load ptr, ptr %137, align 8, !tbaa !103
  %139 = icmp eq ptr %138, null
  br i1 %139, label %140, label %141

140:                                              ; preds = %115
  store i32 -20, ptr %6, align 4
  store i32 1, ptr %14, align 4
  br label %189

141:                                              ; preds = %115
  %142 = load ptr, ptr %12, align 8, !tbaa !19
  %143 = getelementptr inbounds nuw %struct.ARKodeMRIStepMemRec, ptr %142, i32 0, i32 63
  %144 = load i32, ptr %143, align 8, !tbaa !102
  %145 = sext i32 %144 to i64
  %146 = load ptr, ptr %7, align 8, !tbaa !17
  %147 = getelementptr inbounds nuw %struct.ARKodeMemRec, ptr %146, i32 0, i32 115
  %148 = load i64, ptr %147, align 8, !tbaa !84
  %149 = add nsw i64 %148, %145
  store i64 %149, ptr %147, align 8, !tbaa !84
  %150 = load ptr, ptr %12, align 8, !tbaa !19
  %151 = getelementptr inbounds nuw %struct.ARKodeMRIStepMemRec, ptr %150, i32 0, i32 71
  store ptr null, ptr %151, align 8, !tbaa !104
  %152 = load ptr, ptr %12, align 8, !tbaa !19
  %153 = getelementptr inbounds nuw %struct.ARKodeMRIStepMemRec, ptr %152, i32 0, i32 63
  %154 = load i32, ptr %153, align 8, !tbaa !102
  %155 = sext i32 %154 to i64
  %156 = call noalias ptr @calloc(i64 noundef %155, i64 noundef 8) #9
  %157 = load ptr, ptr %12, align 8, !tbaa !19
  %158 = getelementptr inbounds nuw %struct.ARKodeMRIStepMemRec, ptr %157, i32 0, i32 71
  store ptr %156, ptr %158, align 8, !tbaa !104
  %159 = load ptr, ptr %12, align 8, !tbaa !19
  %160 = getelementptr inbounds nuw %struct.ARKodeMRIStepMemRec, ptr %159, i32 0, i32 71
  %161 = load ptr, ptr %160, align 8, !tbaa !104
  %162 = icmp eq ptr %161, null
  br i1 %162, label %163, label %164

163:                                              ; preds = %141
  store i32 -20, ptr %6, align 4
  store i32 1, ptr %14, align 4
  br label %189

164:                                              ; preds = %141
  %165 = load ptr, ptr %12, align 8, !tbaa !19
  %166 = getelementptr inbounds nuw %struct.ARKodeMRIStepMemRec, ptr %165, i32 0, i32 63
  %167 = load i32, ptr %166, align 8, !tbaa !102
  %168 = sext i32 %167 to i64
  %169 = load ptr, ptr %7, align 8, !tbaa !17
  %170 = getelementptr inbounds nuw %struct.ARKodeMemRec, ptr %169, i32 0, i32 116
  %171 = load i64, ptr %170, align 8, !tbaa !83
  %172 = add nsw i64 %171, %168
  store i64 %172, ptr %170, align 8, !tbaa !83
  br label %173

173:                                              ; preds = %164, %67
  br label %174

174:                                              ; preds = %173, %62, %43
  br label %188

175:                                              ; preds = %21
  %176 = load ptr, ptr %12, align 8, !tbaa !19
  %177 = getelementptr inbounds nuw %struct.ARKodeMRIStepMemRec, ptr %176, i32 0, i32 64
  store i32 0, ptr %177, align 4, !tbaa !110
  %178 = load ptr, ptr %12, align 8, !tbaa !19
  %179 = getelementptr inbounds nuw %struct.ARKodeMRIStepMemRec, ptr %178, i32 0, i32 65
  store i32 0, ptr %179, align 8, !tbaa !111
  %180 = load ptr, ptr %12, align 8, !tbaa !19
  %181 = getelementptr inbounds nuw %struct.ARKodeMRIStepMemRec, ptr %180, i32 0, i32 66
  store double 0.000000e+00, ptr %181, align 8, !tbaa !217
  %182 = load ptr, ptr %12, align 8, !tbaa !19
  %183 = getelementptr inbounds nuw %struct.ARKodeMRIStepMemRec, ptr %182, i32 0, i32 67
  store double 1.000000e+00, ptr %183, align 8, !tbaa !218
  %184 = load ptr, ptr %12, align 8, !tbaa !19
  %185 = getelementptr inbounds nuw %struct.ARKodeMRIStepMemRec, ptr %184, i32 0, i32 68
  store ptr null, ptr %185, align 8, !tbaa !112
  %186 = load ptr, ptr %12, align 8, !tbaa !19
  %187 = getelementptr inbounds nuw %struct.ARKodeMRIStepMemRec, ptr %186, i32 0, i32 69
  store i32 0, ptr %187, align 8, !tbaa !113
  br label %188

188:                                              ; preds = %175, %174
  store i32 0, ptr %6, align 4
  store i32 1, ptr %14, align 4
  br label %189

189:                                              ; preds = %188, %163, %140, %19
  call void @llvm.lifetime.end.p0(i64 4, ptr %13) #8
  call void @llvm.lifetime.end.p0(i64 8, ptr %12) #8
  %190 = load i32, ptr %6, align 4
  ret i32 %190
}