; Function Attrs: nounwind uwtable
define range(i32 -21, 1) i32 @mriStep_SetInnerForcing(ptr noundef %0, double noundef %1, double noundef %2, ptr noundef %3, i32 noundef %4) #0 {
  %6 = getelementptr inbounds nuw i8, ptr %0, i64 136
  %7 = load ptr, ptr %6, align 8, !tbaa !71
  %8 = icmp eq ptr %7, null
  br i1 %8, label %mriStep_AccessStepMem.exit, label %9

mriStep_AccessStepMem.exit:                       ; preds = %5
  tail call void (ptr, i32, i32, ptr, ptr, ptr, ...) @arkProcessError(ptr noundef nonnull %0, i32 noundef -21, i32 noundef 3097, ptr noundef nonnull @__func__.mriStep_SetInnerForcing, ptr noundef nonnull @.str, ptr noundef nonnull @.str.75) #14
  br label %81

9:                                                ; preds = %5
  %10 = icmp sgt i32 %4, 0
  br i1 %10, label %11, label %74

11:                                               ; preds = %9
  %12 = getelementptr inbounds nuw i8, ptr %7, i64 24
  %13 = load i32, ptr %12, align 8, !tbaa !83
  %.not19 = icmp eq i32 %13, 0
  br i1 %.not19, label %16, label %14

14:                                               ; preds = %11
  %15 = getelementptr inbounds nuw i8, ptr %7, i64 60
  store i32 0, ptr %15, align 4, !tbaa !81
  br label %18

16:                                               ; preds = %11
  %17 = getelementptr inbounds nuw i8, ptr %7, i64 64
  store i32 0, ptr %17, align 8, !tbaa !82
  br label %18

18:                                               ; preds = %16, %14
  %.sink40 = phi i32 [ 0, %16 ], [ 1, %14 ]
  %.sink = phi i32 [ 1, %16 ], [ 0, %14 ]
  %19 = getelementptr inbounds nuw i8, ptr %7, i64 460
  store i32 %.sink40, ptr %19, align 4, !tbaa !98
  %20 = getelementptr inbounds nuw i8, ptr %7, i64 464
  store i32 %.sink, ptr %20, align 8, !tbaa !99
  %21 = getelementptr inbounds nuw i8, ptr %7, i64 472
  store double %1, ptr %21, align 8, !tbaa !188
  %22 = getelementptr inbounds nuw i8, ptr %7, i64 480
  store double %2, ptr %22, align 8, !tbaa !189
  %23 = getelementptr inbounds nuw i8, ptr %7, i64 488
  store ptr %3, ptr %23, align 8, !tbaa !100
  %24 = getelementptr inbounds nuw i8, ptr %7, i64 496
  store i32 %4, ptr %24, align 8, !tbaa !101
  %25 = getelementptr inbounds nuw i8, ptr %0, i64 608
  store i32 0, ptr %25, align 8, !tbaa !183
  %26 = getelementptr inbounds nuw i8, ptr %7, i64 504
  %27 = load ptr, ptr %26, align 8, !tbaa !93
  %.not20 = icmp eq ptr %27, null
  br i1 %.not20, label %81, label %28

28:                                               ; preds = %18
  %29 = getelementptr inbounds nuw i8, ptr %7, i64 512
  %30 = load ptr, ptr %29, align 8, !tbaa !94
  %.not21 = icmp eq ptr %30, null
  br i1 %.not21, label %81, label %31

31:                                               ; preds = %28
  %32 = getelementptr inbounds nuw i8, ptr %7, i64 456
  %33 = load i32, ptr %32, align 8, !tbaa !92
  %34 = sub nsw i32 %33, %4
  %35 = getelementptr inbounds nuw i8, ptr %7, i64 72
  %36 = load ptr, ptr %35, align 8, !tbaa !125
  %37 = getelementptr inbounds nuw i8, ptr %36, i64 8
  %38 = load i32, ptr %37, align 8, !tbaa !130
  %39 = shl nsw i32 %38, 1
  %40 = add nsw i32 %39, 2
  %41 = icmp slt i32 %34, %40
  br i1 %41, label %42, label %81

42:                                               ; preds = %31
  tail call void @free(ptr noundef nonnull %27) #14
  %43 = load i32, ptr %32, align 8, !tbaa !92
  %44 = sext i32 %43 to i64
  %45 = getelementptr inbounds nuw i8, ptr %0, i64 872
  %46 = load i64, ptr %45, align 8, !tbaa !86
  %47 = sub nsw i64 %46, %44
  store i64 %47, ptr %45, align 8, !tbaa !86
  %48 = load ptr, ptr %29, align 8, !tbaa !94
  %.not22 = icmp eq ptr %48, null
  br i1 %.not22, label %55, label %49

49:                                               ; preds = %42
  tail call void @free(ptr noundef nonnull %48) #14
  %50 = load i32, ptr %32, align 8, !tbaa !92
  %51 = sext i32 %50 to i64
  %52 = getelementptr inbounds nuw i8, ptr %0, i64 880
  %53 = load i64, ptr %52, align 8, !tbaa !85
  %54 = sub nsw i64 %53, %51
  store i64 %54, ptr %52, align 8, !tbaa !85
  br label %55

55:                                               ; preds = %49, %42
  %56 = load ptr, ptr %35, align 8, !tbaa !125
  %57 = getelementptr inbounds nuw i8, ptr %56, i64 8
  %58 = load i32, ptr %57, align 8, !tbaa !130
  %59 = shl nsw i32 %58, 1
  %60 = add nuw i32 %4, 2
  %61 = add i32 %60, %59
  store i32 %61, ptr %32, align 8, !tbaa !92
  %62 = sext i32 %61 to i64
  %63 = tail call noalias ptr @calloc(i64 noundef %62, i64 noundef 8) #15
  store ptr %63, ptr %26, align 8, !tbaa !93
  %64 = icmp eq ptr %63, null
  br i1 %64, label %81, label %65

65:                                               ; preds = %55
  %66 = load i64, ptr %45, align 8, !tbaa !86
  %67 = add nsw i64 %66, %62
  store i64 %67, ptr %45, align 8, !tbaa !86
  %68 = tail call noalias ptr @calloc(i64 noundef %62, i64 noundef 8) #15
  store ptr %68, ptr %29, align 8, !tbaa !94
  %69 = icmp eq ptr %68, null
  br i1 %69, label %81, label %70

70:                                               ; preds = %65
  %71 = getelementptr inbounds nuw i8, ptr %0, i64 880
  %72 = load i64, ptr %71, align 8, !tbaa !85
  %73 = add nsw i64 %72, %62
  store i64 %73, ptr %71, align 8, !tbaa !85
  br label %81

74:                                               ; preds = %9
  %75 = getelementptr inbounds nuw i8, ptr %7, i64 460
  store i32 0, ptr %75, align 4, !tbaa !98
  %76 = getelementptr inbounds nuw i8, ptr %7, i64 464
  store i32 0, ptr %76, align 8, !tbaa !99
  %77 = getelementptr inbounds nuw i8, ptr %7, i64 472
  store double 0.000000e+00, ptr %77, align 8, !tbaa !188
  %78 = getelementptr inbounds nuw i8, ptr %7, i64 480
  store double 1.000000e+00, ptr %78, align 8, !tbaa !189
  %79 = getelementptr inbounds nuw i8, ptr %7, i64 488
  store ptr null, ptr %79, align 8, !tbaa !100
  %80 = getelementptr inbounds nuw i8, ptr %7, i64 496
  store i32 0, ptr %80, align 8, !tbaa !101
  br label %81

81:                                               ; preds = %mriStep_AccessStepMem.exit, %74, %31, %70, %28, %18, %65, %55
  %.0 = phi i32 [ -21, %mriStep_AccessStepMem.exit ], [ -20, %55 ], [ -20, %65 ], [ 0, %18 ], [ 0, %28 ], [ 0, %70 ], [ 0, %31 ], [ 0, %74 ]
  ret i32 %.0
}